; Function Attrs: mustprogress uwtable
define void @_ZN4LIEF5MachO18ChainedBindingInfo3setERKNS0_7details24dyld_chained_ptr_64_bindE(ptr nocapture noundef nonnull align 8 dereferenceable(88) %0, ptr nocapture noundef nonnull readonly align 8 dereferenceable(8) %1) local_unnamed_addr #0 align 2 {
  %3 = getelementptr inbounds i8, ptr %0, i64 76
  %4 = load i32, ptr %3, align 4
  switch i32 %4, label %_ZN4LIEF5MachO18ChainedBindingInfo5clearEv.exit [
    i32 2, label %5
    i32 1, label %9
    i32 3, label %13
    i32 4, label %17
    i32 6, label %21
    i32 5, label %25
  ]

5:                                                ; preds = %2
  %6 = getelementptr inbounds i8, ptr %0, i64 80
  %7 = load ptr, ptr %6, align 8
  %8 = icmp eq ptr %7, null
  br i1 %8, label %_ZN4LIEF5MachO18ChainedBindingInfo5clearEv.exit, label %.sink.split.i

9:                                                ; preds = %2
  %10 = getelementptr inbounds i8, ptr %0, i64 80
  %11 = load ptr, ptr %10, align 8
  %12 = icmp eq ptr %11, null
  br i1 %12, label %_ZN4LIEF5MachO18ChainedBindingInfo5clearEv.exit, label %.sink.split.i

13:                                               ; preds = %2
  %14 = getelementptr inbounds i8, ptr %0, i64 80
  %15 = load ptr, ptr %14, align 8
  %16 = icmp eq ptr %15, null
  br i1 %16, label %_ZN4LIEF5MachO18ChainedBindingInfo5clearEv.exit, label %.sink.split.i

17:                                               ; preds = %2
  %18 = getelementptr inbounds i8, ptr %0, i64 80
  %19 = load ptr, ptr %18, align 8
  %20 = icmp eq ptr %19, null
  br i1 %20, label %_ZN4LIEF5MachO18ChainedBindingInfo5clearEv.exit, label %.sink.split.i

21:                                               ; preds = %2
  %22 = getelementptr inbounds i8, ptr %0, i64 80
  %23 = load ptr, ptr %22, align 8
  %24 = icmp eq ptr %23, null
  br i1 %24, label %_ZN4LIEF5MachO18ChainedBindingInfo5clearEv.exit, label %.sink.split.i

25:                                               ; preds = %2
  %26 = getelementptr inbounds i8, ptr %0, i64 80
  %27 = load ptr, ptr %26, align 8
  %28 = icmp eq ptr %27, null
  br i1 %28, label %_ZN4LIEF5MachO18ChainedBindingInfo5clearEv.exit, label %.sink.split.i

.sink.split.i:                                    ; preds = %25, %21, %17, %13, %9, %5
  %.sink.i = phi ptr [ %7, %5 ], [ %11, %9 ], [ %15, %13 ], [ %19, %17 ], [ %23, %21 ], [ %27, %25 ]
  tail call void @_ZdlPv(ptr noundef nonnull %.sink.i) #12
  br label %_ZN4LIEF5MachO18ChainedBindingInfo5clearEv.exit

_ZN4LIEF5MachO18ChainedBindingInfo5clearEv.exit:  ; preds = %2, %5, %9, %13, %17, %21, %25, %.sink.split.i
  store i32 5, ptr %3, align 4
  %29 = tail call noalias noundef nonnull dereferenceable(8) ptr @_Znwm(i64 noundef 8) #10
  %30 = load i64, ptr %1, align 8
  store i64 %30, ptr %29, align 8
  %31 = getelementptr inbounds i8, ptr %0, i64 80
  store ptr %29, ptr %31, align 8
  ret void
}